
TEST.elf:     file format elf32-avr

Sections:
Idx Name          Size      VMA       LMA       File off  Algn
  0 .text         000000ca  00000000  00000000  00000074  2**1
                  CONTENTS, ALLOC, LOAD, READONLY, CODE
  1 .data         00000000  00800060  000000ca  0000013e  2**0
                  CONTENTS, ALLOC, LOAD, DATA
  2 .stab         000006cc  00000000  00000000  00000140  2**2
                  CONTENTS, READONLY, DEBUGGING
  3 .stabstr      00000097  00000000  00000000  0000080c  2**0
                  CONTENTS, READONLY, DEBUGGING
  4 .comment      0000002f  00000000  00000000  000008a3  2**0
                  CONTENTS, READONLY

Disassembly of section .text:

00000000 <__vectors>:
   0:	16 c0       	rjmp	.+44     	; 0x2e <__ctors_end>
   2:	1d c0       	rjmp	.+58     	; 0x3e <__bad_interrupt>
   4:	1c c0       	rjmp	.+56     	; 0x3e <__bad_interrupt>
   6:	1b c0       	rjmp	.+54     	; 0x3e <__bad_interrupt>
   8:	1a c0       	rjmp	.+52     	; 0x3e <__bad_interrupt>
   a:	19 c0       	rjmp	.+50     	; 0x3e <__bad_interrupt>
   c:	18 c0       	rjmp	.+48     	; 0x3e <__bad_interrupt>
   e:	17 c0       	rjmp	.+46     	; 0x3e <__bad_interrupt>
  10:	16 c0       	rjmp	.+44     	; 0x3e <__bad_interrupt>
  12:	15 c0       	rjmp	.+42     	; 0x3e <__bad_interrupt>
  14:	14 c0       	rjmp	.+40     	; 0x3e <__bad_interrupt>
  16:	13 c0       	rjmp	.+38     	; 0x3e <__bad_interrupt>
  18:	12 c0       	rjmp	.+36     	; 0x3e <__bad_interrupt>
  1a:	11 c0       	rjmp	.+34     	; 0x3e <__bad_interrupt>
  1c:	10 c0       	rjmp	.+32     	; 0x3e <__bad_interrupt>
  1e:	0f c0       	rjmp	.+30     	; 0x3e <__bad_interrupt>
  20:	0e c0       	rjmp	.+28     	; 0x3e <__bad_interrupt>
  22:	0d c0       	rjmp	.+26     	; 0x3e <__bad_interrupt>
  24:	0c c0       	rjmp	.+24     	; 0x3e <__bad_interrupt>

00000026 <tab2>:
  26:	40 c0 80 00                                         @...

0000002a <tab1>:
  2a:	04 06 02 00                                         ....

0000002e <__ctors_end>:
  2e:	11 24       	eor	r1, r1
  30:	1f be       	out	0x3f, r1	; 63
  32:	cf e5       	ldi	r28, 0x5F	; 95
  34:	d4 e0       	ldi	r29, 0x04	; 4
  36:	de bf       	out	0x3e, r29	; 62
  38:	cd bf       	out	0x3d, r28	; 61
  3a:	02 d0       	rcall	.+4      	; 0x40 <main>
  3c:	44 c0       	rjmp	.+136    	; 0xc6 <_exit>

0000003e <__bad_interrupt>:
  3e:	e0 cf       	rjmp	.-64     	; 0x0 <__vectors>

00000040 <main>:
  40:	b9 9a       	sbi	0x17, 1	; 23
  42:	ba 9a       	sbi	0x17, 2	; 23
  44:	8e 9a       	sbi	0x11, 6	; 17
  46:	8f 9a       	sbi	0x11, 7	; 17
  48:	a5 98       	cbi	0x14, 5	; 20
  4a:	ad 9a       	sbi	0x15, 5	; 21
  4c:	a4 98       	cbi	0x14, 4	; 20
  4e:	ac 9a       	sbi	0x15, 4	; 21
  50:	20 e0       	ldi	r18, 0x00	; 0
  52:	30 e0       	ldi	r19, 0x00	; 0
  54:	80 e0       	ldi	r24, 0x00	; 0
  56:	90 e0       	ldi	r25, 0x00	; 0
  58:	2b c0       	rjmp	.+86     	; 0xb0 <main+0x70>
  5a:	41 e0       	ldi	r20, 0x01	; 1
  5c:	9d 99       	sbic	0x13, 5	; 19
  5e:	13 c0       	rjmp	.+38     	; 0x86 <main+0x46>
  60:	e7 e8       	ldi	r30, 0x87	; 135
  62:	f3 e1       	ldi	r31, 0x13	; 19
  64:	31 97       	sbiw	r30, 0x01	; 1
  66:	f1 f7       	brne	.-4      	; 0x64 <main+0x24>
  68:	00 c0       	rjmp	.+0      	; 0x6a <main+0x2a>
  6a:	00 00       	nop
  6c:	9d 99       	sbic	0x13, 5	; 19
  6e:	0b c0       	rjmp	.+22     	; 0x86 <main+0x46>
  70:	41 30       	cpi	r20, 0x01	; 1
  72:	49 f4       	brne	.+18     	; 0x86 <main+0x46>
  74:	fc 01       	movw	r30, r24
  76:	e3 70       	andi	r30, 0x03	; 3
  78:	ff 27       	eor	r31, r31
  7a:	e6 5d       	subi	r30, 0xD6	; 214
  7c:	ff 4f       	sbci	r31, 0xFF	; 255
  7e:	e4 91       	lpm	r30, Z
  80:	e8 bb       	out	0x18, r30	; 24
  82:	01 96       	adiw	r24, 0x01	; 1
  84:	40 e0       	ldi	r20, 0x00	; 0
  86:	9c 99       	sbic	0x13, 4	; 19
  88:	15 c0       	rjmp	.+42     	; 0xb4 <main+0x74>
  8a:	e7 e8       	ldi	r30, 0x87	; 135
  8c:	f3 e1       	ldi	r31, 0x13	; 19
  8e:	31 97       	sbiw	r30, 0x01	; 1
  90:	f1 f7       	brne	.-4      	; 0x8e <main+0x4e>
  92:	00 c0       	rjmp	.+0      	; 0x94 <main+0x54>
  94:	00 00       	nop
  96:	9c 99       	sbic	0x13, 4	; 19
  98:	e1 cf       	rjmp	.-62     	; 0x5c <main+0x1c>
  9a:	41 30       	cpi	r20, 0x01	; 1
  9c:	f9 f6       	brne	.-66     	; 0x5c <main+0x1c>
  9e:	f9 01       	movw	r30, r18
  a0:	e3 70       	andi	r30, 0x03	; 3
  a2:	ff 27       	eor	r31, r31
  a4:	ea 5d       	subi	r30, 0xDA	; 218
  a6:	ff 4f       	sbci	r31, 0xFF	; 255
  a8:	e4 91       	lpm	r30, Z
  aa:	e2 bb       	out	0x12, r30	; 18
  ac:	2f 5f       	subi	r18, 0xFF	; 255
  ae:	3f 4f       	sbci	r19, 0xFF	; 255
  b0:	40 e0       	ldi	r20, 0x00	; 0
  b2:	d4 cf       	rjmp	.-88     	; 0x5c <main+0x1c>
  b4:	e7 e8       	ldi	r30, 0x87	; 135
  b6:	f3 e1       	ldi	r31, 0x13	; 19
  b8:	31 97       	sbiw	r30, 0x01	; 1
  ba:	f1 f7       	brne	.-4      	; 0xb8 <main+0x78>
  bc:	00 c0       	rjmp	.+0      	; 0xbe <main+0x7e>
  be:	00 00       	nop
  c0:	9d 99       	sbic	0x13, 5	; 19
  c2:	cb cf       	rjmp	.-106    	; 0x5a <main+0x1a>
  c4:	cb cf       	rjmp	.-106    	; 0x5c <main+0x1c>

000000c6 <_exit>:
  c6:	f8 94       	cli

000000c8 <__stop_program>:
  c8:	ff cf       	rjmp	.-2      	; 0xc8 <__stop_program>
